; Function Attrs: mustprogress nofree nounwind willreturn memory(read, inaccessiblemem: none) uwtable
define noundef zeroext i1 @_ZN4baseeqERKNS_16BasicStringPieceINSt7__cxx1112basic_stringIcSt11char_traitsIcESaIcEEEEES9_(ptr noundef nonnull readonly align 8 captures(none) dereferenceable(16) %0, ptr noundef nonnull readonly align 8 captures(none) dereferenceable(16) %1) local_unnamed_addr #6 {
  %3 = getelementptr inbounds nuw i8, ptr %0, i64 8
  %4 = load i64, ptr %3, align 8, !tbaa !10
  %5 = getelementptr inbounds nuw i8, ptr %1, i64 8
  %6 = load i64, ptr %5, align 8, !tbaa !10
  %.not = icmp eq i64 %4, %6
  br i1 %.not, label %7, label %_ZN4base16BasicStringPieceINSt7__cxx1112basic_stringIcSt11char_traitsIcESaIcEEEE10wordmemcmpEPKcS9_m.exit

7:                                                ; preds = %2
  %8 = icmp eq i64 %4, 0
  br i1 %8, label %_ZN4base16BasicStringPieceINSt7__cxx1112basic_stringIcSt11char_traitsIcESaIcEEEE10wordmemcmpEPKcS9_m.exit, label %9

9:                                                ; preds = %7
  %10 = load ptr, ptr %1, align 8, !tbaa !3
  %11 = load ptr, ptr %0, align 8, !tbaa !3
  %bcmp = tail call i32 @bcmp(ptr %11, ptr %10, i64 %4)
  %12 = icmp eq i32 %bcmp, 0
  br label %_ZN4base16BasicStringPieceINSt7__cxx1112basic_stringIcSt11char_traitsIcESaIcEEEE10wordmemcmpEPKcS9_m.exit

_ZN4base16BasicStringPieceINSt7__cxx1112basic_stringIcSt11char_traitsIcESaIcEEEE10wordmemcmpEPKcS9_m.exit: ; preds = %9, %7, %2
  %.0 = phi i1 [ false, %2 ], [ %12, %9 ], [ true, %7 ]
  ret i1 %.0
}